; Function Attrs: mustprogress nofree norecurse nosync nounwind willreturn memory(read, inaccessiblemem: none) uwtable
define noundef nonnull align 8 dereferenceable(32) ptr @_ZNK13sentencepiece49ImmutableSentencePieceText_ImmutableSentencePiece7surfaceB5cxx11Ev(ptr nocapture noundef nonnull readonly align 8 dereferenceable(8) %0) local_unnamed_addr #7 align 2 {
  %2 = load ptr, ptr %0, align 8
  %3 = getelementptr inbounds i8, ptr %2, i64 56
  %4 = load ptr, ptr %3, align 8
  %5 = ptrtoint ptr %4 to i64
  %6 = and i64 %5, -2
  %7 = inttoptr i64 %6 to ptr
  ret ptr %7
}